target datalayout = "e-m:e-p270:32:32-p271:32:32-p272:64:64-i64:64-i128:128-f80:128-n8:16:32:64-S128"
target triple = "x86_64-pc-linux-gnu"

%struct.Qureg = type { i32, i32, i32, i64, i64, i32, i32, %struct.ComplexArray, %struct.ComplexArray, %struct.ComplexArray, ptr, ptr, ptr, ptr, ptr, ptr }
%struct.ComplexArray = type { ptr, ptr }

@__func__.collapseToOutcome = private unnamed_addr constant [18 x i8] c"collapseToOutcome\00", align 1

; Function Attrs: nounwind uwtable
define double @collapseToOutcome(ptr noundef byval(%struct.Qureg) align 8 %0, i32 noundef %1, i32 noundef %2) #0 {
  %4 = alloca i32, align 4
  %5 = alloca i32, align 4
  %6 = alloca double, align 8
  store i32 %1, ptr %4, align 4, !tbaa !4
  store i32 %2, ptr %5, align 4, !tbaa !4
  %7 = load i32, ptr %4, align 4, !tbaa !4
  call void @validateTarget(ptr noundef byval(%struct.Qureg) align 8 %0, i32 noundef %7, ptr noundef @__func__.collapseToOutcome)
  %8 = load i32, ptr %5, align 4, !tbaa !4
  call void @validateOutcome(i32 noundef %8, ptr noundef @__func__.collapseToOutcome)
  call void @llvm.lifetime.start.p0(i64 8, ptr %6) #7
  %9 = getelementptr inbounds nuw %struct.Qureg, ptr %0, i32 0, i32 0
  %10 = load i32, ptr %9, align 8, !tbaa !13
  %11 = icmp ne i32 %10, 0
  br i1 %11, label %12, label %20

12:                                               ; preds = %3
  %13 = load i32, ptr %4, align 4, !tbaa !4
  %14 = load i32, ptr %5, align 4, !tbaa !4
  %15 = call double @densmatr_calcProbOfOutcome(ptr noundef byval(%struct.Qureg) align 8 %0, i32 noundef %13, i32 noundef %14)
  store double %15, ptr %6, align 8, !tbaa !25
  %16 = load double, ptr %6, align 8, !tbaa !25
  call void @validateMeasurementProb(double noundef %16, ptr noundef @__func__.collapseToOutcome)
  %17 = load i32, ptr %4, align 4, !tbaa !4
  %18 = load i32, ptr %5, align 4, !tbaa !4
  %19 = load double, ptr %6, align 8, !tbaa !25
  call void @densmatr_collapseToKnownProbOutcome(ptr noundef byval(%struct.Qureg) align 8 %0, i32 noundef %17, i32 noundef %18, double noundef %19)
  br label %28

20:                                               ; preds = %3
  %21 = load i32, ptr %4, align 4, !tbaa !4
  %22 = load i32, ptr %5, align 4, !tbaa !4
  %23 = call double @statevec_calcProbOfOutcome(ptr noundef byval(%struct.Qureg) align 8 %0, i32 noundef %21, i32 noundef %22)
  store double %23, ptr %6, align 8, !tbaa !25
  %24 = load double, ptr %6, align 8, !tbaa !25
  call void @validateMeasurementProb(double noundef %24, ptr noundef @__func__.collapseToOutcome)
  %25 = load i32, ptr %4, align 4, !tbaa !4
  %26 = load i32, ptr %5, align 4, !tbaa !4
  %27 = load double, ptr %6, align 8, !tbaa !25
  call void @statevec_collapseToKnownProbOutcome(ptr noundef byval(%struct.Qureg) align 8 %0, i32 noundef %25, i32 noundef %26, double noundef %27)
  br label %28

28:                                               ; preds = %20, %12
  %29 = load i32, ptr %4, align 4, !tbaa !4
  call void @qasm_recordMeasurement(ptr noundef byval(%struct.Qureg) align 8 %0, i32 noundef %29)
  %30 = load double, ptr %6, align 8, !tbaa !25
  call void @llvm.lifetime.end.p0(i64 8, ptr %6) #7
  ret double %30
}